target datalayout = "e-m:e-p270:32:32-p271:32:32-p272:64:64-i64:64-i128:128-f80:128-n8:16:32:64-S128"
target triple = "x86_64-pc-linux-gnu"

%struct._packet_info = type { ptr, ptr, i32, i32, %struct.nstime_t, %struct.nstime_t, %struct.nstime_t, i8, ptr, ptr, ptr, ptr, %struct._address, %struct._address, %struct._address, %struct._address, %struct._address, %struct._address, i32, ptr, i8, [3 x i8], %struct.anon, i32, i32, i32, i32, ptr, i8, ptr, ptr, i16, i16, i32, i32, i16, i32, i32, ptr, ptr, ptr, i8, i8, i16, i16, i16, i32, i16, i16, ptr, ptr, ptr, ptr, ptr, i32, i32 }
%struct.nstime_t = type { i64, i32 }
%struct._address = type { i32, i32, ptr, ptr }
%struct.anon = type { i8, [3 x i8] }

@hf_giop_repoid = internal global i32 0, align 4
@hf_giop_typecode_name = internal global i32 0, align 4

; Function Attrs: null_pointer_is_valid sspstrong uwtable
define i32 @get_CDR_typeCode(ptr noundef %0, ptr noundef %1, ptr noundef %2, ptr noundef %3, i1 noundef zeroext %4, i32 noundef %5, ptr noundef %6) #0 {
  %8 = alloca ptr, align 8
  %9 = alloca ptr, align 8
  %10 = alloca ptr, align 8
  %11 = alloca ptr, align 8
  %12 = alloca i8, align 1
  %13 = alloca i32, align 4
  %14 = alloca ptr, align 8
  %15 = alloca ptr, align 8
  %16 = alloca i32, align 4
  store ptr %0, ptr %8, align 8
  store ptr %1, ptr %9, align 8
  store ptr %2, ptr %10, align 8
  store ptr %3, ptr %11, align 8
  %17 = zext i1 %4 to i8
  store i8 %17, ptr %12, align 1
  store i32 %5, ptr %13, align 4
  store ptr %6, ptr %14, align 8
  call void @llvm.lifetime.start.p0(i64 8, ptr %15) #14
  %18 = load ptr, ptr %9, align 8
  %19 = getelementptr inbounds nuw %struct._packet_info, ptr %18, i32 0, i32 51
  %20 = load ptr, ptr %19, align 8
  %21 = call noalias ptr @wmem_list_new(ptr noundef %20)
  store ptr %21, ptr %15, align 8
  call void @llvm.lifetime.start.p0(i64 4, ptr %16) #14
  %22 = load ptr, ptr %8, align 8
  %23 = load ptr, ptr %9, align 8
  %24 = load ptr, ptr %10, align 8
  %25 = load ptr, ptr %11, align 8
  %26 = load i8, ptr %12, align 1, !range !8, !noundef !9
  %27 = trunc i8 %26 to i1
  %28 = load i32, ptr %13, align 4
  %29 = load ptr, ptr %14, align 8
  %30 = load ptr, ptr %15, align 8
  %31 = call i32 @get_CDR_typeCode_with_params(ptr noundef %22, ptr noundef %23, ptr noundef %24, ptr noundef %25, i1 noundef zeroext %27, i32 noundef %28, ptr noundef %29, ptr noundef %30)
  store i32 %31, ptr %16, align 4
  %32 = load ptr, ptr %15, align 8
  call void @wmem_destroy_list(ptr noundef %32)
  %33 = load i32, ptr %16, align 4
  call void @llvm.lifetime.end.p0(i64 4, ptr %16) #14
  call void @llvm.lifetime.end.p0(i64 8, ptr %15) #14
  ret i32 %33
}

; Function Attrs: null_pointer_is_valid sspstrong uwtable
define internal void @dissect_tk_value_box_params(ptr noundef %0, ptr noundef %1, ptr noundef %2, ptr noundef %3, i1 noundef zeroext %4, i32 noundef %5, ptr noundef %6) #0 {
  %8 = alloca ptr, align 8
  %9 = alloca ptr, align 8
  %10 = alloca ptr, align 8
  %11 = alloca ptr, align 8
  %12 = alloca i8, align 1
  %13 = alloca i32, align 4
  %14 = alloca ptr, align 8
  %15 = alloca i32, align 4
  %16 = alloca i8, align 1
  %17 = alloca ptr, align 8
  store ptr %0, ptr %8, align 8
  store ptr %1, ptr %9, align 8
  store ptr %2, ptr %10, align 8
  store ptr %3, ptr %11, align 8
  %18 = zext i1 %4 to i8
  store i8 %18, ptr %12, align 1
  store i32 %5, ptr %13, align 4
  store ptr %6, ptr %14, align 8
  call void @llvm.lifetime.start.p0(i64 4, ptr %15) #14
  call void @llvm.lifetime.start.p0(i64 1, ptr %16) #14
  %19 = load ptr, ptr %8, align 8
  %20 = load ptr, ptr %10, align 8
  %21 = load ptr, ptr %11, align 8
  %22 = load i8, ptr %12, align 1, !range !8, !noundef !9
  %23 = trunc i8 %22 to i1
  %24 = load i32, ptr %13, align 4
  %25 = call i32 @get_CDR_encap_info(ptr noundef %19, ptr noundef %20, ptr noundef %21, i1 noundef zeroext %23, i32 noundef %24, ptr noundef %16, ptr noundef %15)
  call void @llvm.lifetime.start.p0(i64 8, ptr %17) #14
  store ptr null, ptr %17, align 8
  %26 = load ptr, ptr %8, align 8
  %27 = load ptr, ptr %10, align 8
  %28 = load ptr, ptr %11, align 8
  %29 = load i8, ptr %16, align 1, !range !8, !noundef !9
  %30 = trunc i8 %29 to i1
  %31 = load i32, ptr %15, align 4
  %32 = load i32, ptr @hf_giop_repoid, align 4
  call void @dissect_typecode_string_param(ptr noundef %26, ptr noundef %27, ptr noundef %28, i1 noundef zeroext %30, i32 noundef %31, i32 noundef %32, ptr noundef %17)
  %33 = load ptr, ptr %8, align 8
  %34 = load ptr, ptr %10, align 8
  %35 = load ptr, ptr %11, align 8
  %36 = load i8, ptr %16, align 1, !range !8, !noundef !9
  %37 = trunc i8 %36 to i1
  %38 = load i32, ptr %15, align 4
  %39 = load i32, ptr @hf_giop_typecode_name, align 4
  call void @dissect_typecode_string_param(ptr noundef %33, ptr noundef %34, ptr noundef %35, i1 noundef zeroext %37, i32 noundef %38, i32 noundef %39, ptr noundef %17)
  %40 = load ptr, ptr %8, align 8
  %41 = load ptr, ptr %9, align 8
  %42 = load ptr, ptr %10, align 8
  %43 = load ptr, ptr %11, align 8
  %44 = load i8, ptr %16, align 1, !range !8, !noundef !9
  %45 = trunc i8 %44 to i1
  %46 = load i32, ptr %15, align 4
  %47 = load ptr, ptr %14, align 8
  %48 = call i32 @get_CDR_typeCode(ptr noundef %40, ptr noundef %41, ptr noundef %42, ptr noundef %43, i1 noundef zeroext %45, i32 noundef %46, ptr noundef %47)
  call void @llvm.lifetime.end.p0(i64 8, ptr %17) #14
  call void @llvm.lifetime.end.p0(i64 1, ptr %16) #14
  call void @llvm.lifetime.end.p0(i64 4, ptr %15) #14
  ret void
}