; Function Attrs: null_pointer_is_valid sspstrong uwtable
define internal fastcc void @dissect_tk_value_box_params(ptr noundef %0, ptr noundef %1, ptr noundef %2, ptr noundef captures(none) %3, i1 noundef zeroext %4, i32 noundef %5, ptr noundef readonly captures(none) %6) unnamed_addr #0 {
  %8 = alloca i32, align 4
  %9 = alloca i8, align 1
  %10 = alloca ptr, align 8
  call void @llvm.lifetime.start.p0(i64 4, ptr nonnull %8) #17
  call void @llvm.lifetime.start.p0(i64 1, ptr nonnull %9) #17
  %11 = call i32 @get_CDR_encap_info(ptr noundef %0, ptr noundef %2, ptr noundef %3, i1 noundef zeroext %4, i32 noundef %5, ptr noundef nonnull %9, ptr noundef nonnull %8)
  call void @llvm.lifetime.start.p0(i64 8, ptr nonnull %10) #17
  %12 = load i8, ptr %9, align 1, !range !29, !noundef !30
  %13 = trunc nuw i8 %12 to i1
  %14 = load i32, ptr %8, align 4
  %15 = load i32, ptr @hf_giop_repoid, align 4
  call fastcc void @dissect_typecode_string_param(ptr noundef %0, ptr noundef %2, ptr noundef %3, i1 noundef zeroext %13, i32 noundef %14, i32 noundef %15, ptr noundef nonnull %10)
  %16 = load i32, ptr @hf_giop_typecode_name, align 4
  call fastcc void @dissect_typecode_string_param(ptr noundef %0, ptr noundef %2, ptr noundef %3, i1 noundef zeroext %13, i32 noundef %14, i32 noundef %16, ptr noundef nonnull %10)
  %17 = getelementptr inbounds nuw i8, ptr %1, i64 408
  %18 = load ptr, ptr %17, align 8
  %19 = tail call noalias ptr @wmem_list_new(ptr noundef %18)
  %20 = tail call fastcc i32 @get_CDR_typeCode_with_params(ptr noundef %0, ptr noundef %1, ptr noundef %2, ptr noundef %3, i1 noundef zeroext %13, i32 noundef %14, ptr noundef %6, ptr noundef %19)
  tail call void @wmem_destroy_list(ptr noundef %19)
  call void @llvm.lifetime.end.p0(i64 8, ptr nonnull %10) #17
  call void @llvm.lifetime.end.p0(i64 1, ptr nonnull %9) #17
  call void @llvm.lifetime.end.p0(i64 4, ptr nonnull %8) #17
  ret void
}